; Function Attrs: mustprogress uwtable
define internal noundef nonnull ptr @_ZN7testing8internal15TestMetaFactoryIN11opencv_test12_GLOBAL__N_166ST_SR_IM_Sparse_OpticalFlow_SparseRLOF_OpticalFlow_SparseRLOF_TestEE17CreateTestFactoryESt5tupleIJNSt7__cxx1112basic_stringIcSt11char_traitsIcESaIcEEESC_bEE(ptr nocapture nonnull readnone align 8 %0, ptr noundef %1) unnamed_addr #3 align 2 personality ptr @__gxx_personality_v0 {
  %3 = alloca %"class.std::tuple", align 8
  %4 = tail call noalias noundef nonnull dereferenceable(80) ptr @_Znwm(i64 noundef 80) #27
  %5 = load i8, ptr %1, align 8
  store i8 %5, ptr %3, align 8
  %6 = getelementptr inbounds i8, ptr %3, i64 8
  %7 = getelementptr inbounds i8, ptr %1, i64 8
  invoke void @_ZNSt7__cxx1112basic_stringIcSt11char_traitsIcESaIcEEC1ERKS4_(ptr noundef nonnull align 8 dereferenceable(32) %6, ptr noundef nonnull align 8 dereferenceable(32) %7)
          to label %.noexc unwind label %17

.noexc:                                           ; preds = %2
  %8 = getelementptr inbounds i8, ptr %3, i64 40
  %9 = getelementptr inbounds i8, ptr %1, i64 40
  invoke void @_ZNSt7__cxx1112basic_stringIcSt11char_traitsIcESaIcEEC1ERKS4_(ptr noundef nonnull align 8 dereferenceable(32) %8, ptr noundef nonnull align 8 dereferenceable(32) %9)
          to label %_ZNSt5tupleIJNSt7__cxx1112basic_stringIcSt11char_traitsIcESaIcEEES5_bEEC2ERKS6_.exit unwind label %10

10:                                               ; preds = %.noexc
  %11 = landingpad { ptr, i32 }
          cleanup
  call void @_ZNSt7__cxx1112basic_stringIcSt11char_traitsIcESaIcEED1Ev(ptr noundef nonnull align 8 dereferenceable(32) %6) #24
  br label %.body

_ZNSt5tupleIJNSt7__cxx1112basic_stringIcSt11char_traitsIcESaIcEEES5_bEEC2ERKS6_.exit: ; preds = %.noexc
  store ptr getelementptr inbounds inrange(-16, 24) (i8, ptr @_ZTVN7testing12_GLOBAL__N_124ParameterizedTestFactoryIN11opencv_test12_GLOBAL__N_166ST_SR_IM_Sparse_OpticalFlow_SparseRLOF_OpticalFlow_SparseRLOF_TestEEE, i64 16), ptr %4, align 8
  %12 = getelementptr inbounds i8, ptr %4, i64 8
  %13 = load i8, ptr %3, align 8
  store i8 %13, ptr %12, align 8
  %14 = getelementptr inbounds i8, ptr %4, i64 16
  invoke void @_ZNSt7__cxx1112basic_stringIcSt11char_traitsIcESaIcEEC1ERKS4_(ptr noundef nonnull align 8 dereferenceable(32) %14, ptr noundef nonnull align 8 dereferenceable(32) %6)
          to label %.noexc4 unwind label %19

.noexc4:                                          ; preds = %_ZNSt5tupleIJNSt7__cxx1112basic_stringIcSt11char_traitsIcESaIcEEES5_bEEC2ERKS6_.exit
  %15 = getelementptr inbounds i8, ptr %4, i64 48
  invoke void @_ZNSt7__cxx1112basic_stringIcSt11char_traitsIcESaIcEEC1ERKS4_(ptr noundef nonnull align 8 dereferenceable(32) %15, ptr noundef nonnull align 8 dereferenceable(32) %8)
          to label %_ZN7testing12_GLOBAL__N_124ParameterizedTestFactoryIN11opencv_test12_GLOBAL__N_166ST_SR_IM_Sparse_OpticalFlow_SparseRLOF_OpticalFlow_SparseRLOF_TestEEC2ESt5tupleIJNSt7__cxx1112basic_stringIcSt11char_traitsIcESaIcEEESC_bEE.exit unwind label %.body.i

.body.i:                                          ; preds = %.noexc4
  %16 = landingpad { ptr, i32 }
          cleanup
  call void @_ZNSt7__cxx1112basic_stringIcSt11char_traitsIcESaIcEED1Ev(ptr noundef nonnull align 8 dereferenceable(32) %14) #24
  br label %.body5

_ZN7testing12_GLOBAL__N_124ParameterizedTestFactoryIN11opencv_test12_GLOBAL__N_166ST_SR_IM_Sparse_OpticalFlow_SparseRLOF_OpticalFlow_SparseRLOF_TestEEC2ESt5tupleIJNSt7__cxx1112basic_stringIcSt11char_traitsIcESaIcEEESC_bEE.exit: ; preds = %.noexc4
  call void @_ZNSt7__cxx1112basic_stringIcSt11char_traitsIcESaIcEED1Ev(ptr noundef nonnull align 8 dereferenceable(32) %8) #24
  call void @_ZNSt7__cxx1112basic_stringIcSt11char_traitsIcESaIcEED1Ev(ptr noundef nonnull align 8 dereferenceable(32) %6) #24
  ret ptr %4

17:                                               ; preds = %2
  %18 = landingpad { ptr, i32 }
          cleanup
  br label %.body

19:                                               ; preds = %_ZNSt5tupleIJNSt7__cxx1112basic_stringIcSt11char_traitsIcESaIcEEES5_bEEC2ERKS6_.exit
  %20 = landingpad { ptr, i32 }
          cleanup
  br label %.body5

.body5:                                           ; preds = %.body.i, %19
  %eh.lpad-body6 = phi { ptr, i32 } [ %20, %19 ], [ %16, %.body.i ]
  call void @_ZNSt7__cxx1112basic_stringIcSt11char_traitsIcESaIcEED1Ev(ptr noundef nonnull align 8 dereferenceable(32) %8) #24
  call void @_ZNSt7__cxx1112basic_stringIcSt11char_traitsIcESaIcEED1Ev(ptr noundef nonnull align 8 dereferenceable(32) %6) #24
  br label %.body

.body:                                            ; preds = %17, %10, %.body5
  %.pn = phi { ptr, i32 } [ %eh.lpad-body6, %.body5 ], [ %18, %17 ], [ %11, %10 ]
  call void @_ZdlPv(ptr noundef nonnull %4) #28
  resume { ptr, i32 } %.pn
}